target datalayout = "e-m:e-p270:32:32-p271:32:32-p272:64:64-i64:64-i128:128-f80:128-n8:16:32:64-S128"
target triple = "x86_64-pc-linux-gnu"

%struct._zval_struct = type { %union._zend_value, %union.anon, %union.anon.2 }
%union._zend_value = type { i64 }
%union.anon = type { i32 }
%union.anon.2 = type { i32 }
%struct._zend_refcounted_h = type { i32, %union.anon.3 }
%union.anon.3 = type { i32 }
%struct.php_user_filter_data = type { ptr, ptr }

; Function Attrs: nounwind uwtable
define internal void @filter_item_dtor(ptr noundef %0) #0 {
  %2 = alloca ptr, align 8
  %3 = alloca i32, align 4
  %4 = alloca ptr, align 8
  %5 = alloca i8, align 1
  %6 = alloca ptr, align 8
  %7 = alloca ptr, align 8
  store ptr %0, ptr %6, align 8
  %8 = load ptr, ptr %6, align 8
  %9 = getelementptr inbounds %struct._zval_struct, ptr %8, i32 0, i32 0
  %10 = load ptr, ptr %9, align 8
  store ptr %10, ptr %7, align 8
  %11 = load ptr, ptr %7, align 8
  %12 = getelementptr inbounds %struct.php_user_filter_data, ptr %11, i32 0, i32 1
  %13 = load ptr, ptr %12, align 8
  store ptr %13, ptr %4, align 8
  store i8 0, ptr %5, align 1
  %14 = load ptr, ptr %4, align 8
  %15 = getelementptr inbounds %struct._zend_refcounted_h, ptr %14, i32 0, i32 1
  %16 = load i32, ptr %15, align 4
  store i32 %16, ptr %3, align 4
  %17 = load i32, ptr %3, align 4
  %18 = and i32 %17, 1008
  %19 = and i32 %18, 64
  %20 = icmp ne i32 %19, 0
  br i1 %20, label %39, label %21

21:                                               ; preds = %1
  %22 = load ptr, ptr %4, align 8
  store ptr %22, ptr %2, align 8
  %23 = load ptr, ptr %2, align 8
  %24 = load i32, ptr %23, align 4
  %25 = icmp ugt i32 %24, 0
  call void @llvm.assume(i1 %25)
  %26 = load ptr, ptr %2, align 8
  %27 = load i32, ptr %26, align 4
  %28 = add i32 %27, -1
  store i32 %28, ptr %26, align 4
  %29 = icmp eq i32 %28, 0
  br i1 %29, label %30, label %38

30:                                               ; preds = %21
  %31 = load i8, ptr %5, align 1
  %32 = trunc i8 %31 to i1
  br i1 %32, label %33, label %35

33:                                               ; preds = %30
  %34 = load ptr, ptr %4, align 8
  call void @free(ptr noundef %34) #12
  br label %37

35:                                               ; preds = %30
  %36 = load ptr, ptr %4, align 8
  call void @_efree(ptr noundef %36) #12
  br label %37

37:                                               ; preds = %35, %33
  br label %38

38:                                               ; preds = %37, %21
  br label %39

39:                                               ; preds = %38, %1
  %40 = load ptr, ptr %7, align 8
  call void @_efree(ptr noundef %40)
  ret void
}